; Function Attrs: mustprogress nounwind uwtable
define internal void @_ZN6icu_77L22userv_deleteStringPairEPv(ptr noundef %0) #3 {
  %2 = icmp eq ptr %0, null
  br i1 %2, label %6, label %3

3:                                                ; preds = %1
  %4 = getelementptr inbounds nuw i8, ptr %0, i64 72
  tail call void @_ZN6icu_7713UnicodeStringD1Ev(ptr noundef nonnull align 8 dereferenceable(64) %4) #17
  %5 = getelementptr inbounds nuw i8, ptr %0, i64 8
  tail call void @_ZN6icu_7713UnicodeStringD1Ev(ptr noundef nonnull align 8 dereferenceable(64) %5) #17
  tail call void @_ZN6icu_777UMemorydlEPv(ptr noundef nonnull %0) #17
  br label %6

6:                                                ; preds = %3, %1
  ret void
}